; Function Attrs: mustprogress uwtable
define noundef range(i32 -4, 2147483647) i32 @_ZNK10open_spiel8efg_game8EFGState13CurrentPlayerEv(ptr noundef nonnull readonly align 8 captures(none) dereferenceable(72) %0) unnamed_addr #3 align 2 personality ptr @__gxx_personality_v0 {
  %2 = alloca i32, align 4
  %3 = alloca i32, align 4
  %4 = alloca %"class.std::__cxx11::basic_string", align 8
  %5 = alloca i32, align 4
  %6 = alloca i32, align 4
  %7 = alloca i32, align 4
  %8 = alloca %"class.std::__cxx11::basic_string", align 8
  %9 = alloca i32, align 4
  %10 = getelementptr inbounds nuw i8, ptr %0, i64 64
  %11 = load ptr, ptr %10, align 8
  %12 = getelementptr inbounds nuw i8, ptr %11, i64 8
  %13 = load i32, ptr %12, align 8
  switch i32 %13, label %15 [
    i32 0, label %32
    i32 2, label %14
  ]

14:                                               ; preds = %1
  br label %32

15:                                               ; preds = %1
  %16 = getelementptr inbounds nuw i8, ptr %11, i64 52
  %17 = load i32, ptr %16, align 4
  store i32 %17, ptr %2, align 4
  store i32 1, ptr %3, align 4
  %18 = icmp sgt i32 %17, 0
  br i1 %18, label %23, label %19

19:                                               ; preds = %15
  store i32 107, ptr %5, align 4
  call void @_ZN10open_spiel8internal11SpielStrCatIJRA136_KcRA2_S2_iS6_RA30_S2_RA26_S2_RA4_S2_RiRA7_S2_SD_EEENSt7__cxx1112basic_stringIcSt11char_traitsIcESaIcEEEDpOT_(ptr dead_on_unwind nonnull writable sret(%"class.std::__cxx11::basic_string") align 8 %4, ptr noundef nonnull align 1 dereferenceable(136) @.str.6, ptr noundef nonnull align 1 dereferenceable(2) @.str.7, ptr noundef nonnull align 4 dereferenceable(4) %5, ptr noundef nonnull align 1 dereferenceable(2) @.str.8, ptr noundef nonnull align 1 dereferenceable(30) @.str.9, ptr noundef nonnull align 1 dereferenceable(26) @.str.10, ptr noundef nonnull align 1 dereferenceable(4) @.str.11, ptr noundef nonnull align 4 dereferenceable(4) %2, ptr noundef nonnull align 1 dereferenceable(7) @.str.12, ptr noundef nonnull align 4 dereferenceable(4) %3)
  invoke void @_ZN10open_spiel15SpielFatalErrorERKNSt7__cxx1112basic_stringIcSt11char_traitsIcESaIcEEE(ptr noundef nonnull align 8 dereferenceable(32) %4) #28
          to label %20 unwind label %21

20:                                               ; preds = %19
  unreachable

21:                                               ; preds = %19
  %22 = landingpad { ptr, i32 }
          cleanup
  br label %33

23:                                               ; preds = %15
  store i32 %17, ptr %6, align 4
  %24 = getelementptr inbounds nuw i8, ptr %0, i64 28
  %25 = load i32, ptr %24, align 4
  store i32 %25, ptr %7, align 4
  %.not = icmp sgt i32 %17, %25
  br i1 %.not, label %26, label %30

26:                                               ; preds = %23
  store i32 108, ptr %9, align 4
  call void @_ZN10open_spiel8internal11SpielStrCatIJRA136_KcRA2_S2_iS6_RA41_S2_RA26_S2_RA4_S2_RiRA18_S2_SD_EEENSt7__cxx1112basic_stringIcSt11char_traitsIcESaIcEEEDpOT_(ptr dead_on_unwind nonnull writable sret(%"class.std::__cxx11::basic_string") align 8 %8, ptr noundef nonnull align 1 dereferenceable(136) @.str.6, ptr noundef nonnull align 1 dereferenceable(2) @.str.7, ptr noundef nonnull align 4 dereferenceable(4) %9, ptr noundef nonnull align 1 dereferenceable(2) @.str.8, ptr noundef nonnull align 1 dereferenceable(41) @.str.13, ptr noundef nonnull align 1 dereferenceable(26) @.str.10, ptr noundef nonnull align 1 dereferenceable(4) @.str.11, ptr noundef nonnull align 4 dereferenceable(4) %6, ptr noundef nonnull align 1 dereferenceable(18) @.str.14, ptr noundef nonnull align 4 dereferenceable(4) %7)
  invoke void @_ZN10open_spiel15SpielFatalErrorERKNSt7__cxx1112basic_stringIcSt11char_traitsIcESaIcEEE(ptr noundef nonnull align 8 dereferenceable(32) %8) #28
          to label %27 unwind label %28

27:                                               ; preds = %26
  unreachable

28:                                               ; preds = %26
  %29 = landingpad { ptr, i32 }
          cleanup
  br label %33

30:                                               ; preds = %23
  %31 = add nsw i32 %17, -1
  br label %32

32:                                               ; preds = %1, %30, %14
  %.04 = phi i32 [ -4, %14 ], [ %31, %30 ], [ -1, %1 ]
  ret i32 %.04

33:                                               ; preds = %28, %21
  %.sink = phi ptr [ %8, %28 ], [ %4, %21 ]
  %.pn = phi { ptr, i32 } [ %29, %28 ], [ %22, %21 ]
  call void @_ZNSt7__cxx1112basic_stringIcSt11char_traitsIcESaIcEED1Ev(ptr noundef nonnull align 8 dereferenceable(32) %.sink) #29
  resume { ptr, i32 } %.pn
}